target datalayout = "e-m:e-p270:32:32-p271:32:32-p272:64:64-i64:64-i128:128-f80:128-n8:16:32:64-S128"
target triple = "x86_64-pc-linux-gnu"

%"class.glslang::HlslGrammar" = type { %"class.glslang::HlslTokenStream.base", ptr, ptr, i8, ptr }
%"class.glslang::HlslTokenStream.base" = type <{ ptr, %"struct.glslang::HlslToken", ptr, %"class.glslang::TVector", %"class.glslang::TVector.0", %"class.glslang::TVector.4", [2 x %"struct.glslang::HlslToken"], i32, [4 x i8], [2 x %"struct.glslang::HlslToken"], i32 }>
%"struct.glslang::HlslToken" = type { %"struct.glslang::TSourceLoc", i32, %union.anon }
%"struct.glslang::TSourceLoc" = type { ptr, i32, i32, i32 }
%union.anon = type { ptr }
%"class.glslang::TVector" = type { %"class.std::vector" }
%"class.std::vector" = type { %"struct.std::_Vector_base" }
%"struct.std::_Vector_base" = type { %"struct.std::_Vector_base<const glslang::TVector<glslang::HlslToken> *, glslang::pool_allocator<const glslang::TVector<glslang::HlslToken> *>>::_Vector_impl" }
%"struct.std::_Vector_base<const glslang::TVector<glslang::HlslToken> *, glslang::pool_allocator<const glslang::TVector<glslang::HlslToken> *>>::_Vector_impl" = type { %"class.glslang::pool_allocator", %"struct.std::_Vector_base<const glslang::TVector<glslang::HlslToken> *, glslang::pool_allocator<const glslang::TVector<glslang::HlslToken> *>>::_Vector_impl_data" }
%"class.glslang::pool_allocator" = type { ptr }
%"struct.std::_Vector_base<const glslang::TVector<glslang::HlslToken> *, glslang::pool_allocator<const glslang::TVector<glslang::HlslToken> *>>::_Vector_impl_data" = type { ptr, ptr, ptr }
%"class.glslang::TVector.0" = type { %"class.std::vector.1" }
%"class.std::vector.1" = type { %"struct.std::_Vector_base.2" }
%"struct.std::_Vector_base.2" = type { %"struct.std::_Vector_base<int, glslang::pool_allocator<int>>::_Vector_impl" }
%"struct.std::_Vector_base<int, glslang::pool_allocator<int>>::_Vector_impl" = type { %"class.glslang::pool_allocator.3", %"struct.std::_Vector_base<int, glslang::pool_allocator<int>>::_Vector_impl_data" }
%"class.glslang::pool_allocator.3" = type { ptr }
%"struct.std::_Vector_base<int, glslang::pool_allocator<int>>::_Vector_impl_data" = type { ptr, ptr, ptr }
%"class.glslang::TVector.4" = type { %"class.std::vector.5" }
%"class.std::vector.5" = type { %"struct.std::_Vector_base.6" }
%"struct.std::_Vector_base.6" = type { %"struct.std::_Vector_base<glslang::HlslToken, glslang::pool_allocator<glslang::HlslToken>>::_Vector_impl" }
%"struct.std::_Vector_base<glslang::HlslToken, glslang::pool_allocator<glslang::HlslToken>>::_Vector_impl" = type { %"class.glslang::pool_allocator.7", %"struct.std::_Vector_base<glslang::HlslToken, glslang::pool_allocator<glslang::HlslToken>>::_Vector_impl_data" }
%"class.glslang::pool_allocator.7" = type { ptr }
%"struct.std::_Vector_base<glslang::HlslToken, glslang::pool_allocator<glslang::HlslToken>>::_Vector_impl_data" = type { ptr, ptr, ptr }
%"class.glslang::HlslTokenStream" = type <{ ptr, %"struct.glslang::HlslToken", ptr, %"class.glslang::TVector", %"class.glslang::TVector.0", %"class.glslang::TVector.4", [2 x %"struct.glslang::HlslToken"], i32, [4 x i8], [2 x %"struct.glslang::HlslToken"], i32, [4 x i8] }>
%"class.glslang::TQualifier" = type <{ ptr, i64, i8, [3 x i8], i32, i32, i64, i64, i8, i8, i8, i8, i8, [3 x i8], i32, i8, i8, i8, i8, i32, ptr, i8, i8, [6 x i8] }>

; Function Attrs: mustprogress nounwind uwtable
define noundef zeroext i1 @_ZN7glslang11HlslGrammar18acceptPreQualifierERNS_10TQualifierE(ptr noundef nonnull align 8 dereferenceable(360) %0, ptr noundef nonnull align 8 dereferenceable(80) %1) #0 align 2 {
  %3 = alloca i1, align 1
  %4 = alloca ptr, align 8
  %5 = alloca ptr, align 8
  %6 = alloca i32, align 4
  %7 = alloca i32, align 4
  %8 = alloca i32, align 4
  %9 = alloca i32, align 4
  %10 = alloca i32, align 4
  store ptr %0, ptr %4, align 8
  store ptr %1, ptr %5, align 8
  %11 = load ptr, ptr %4, align 8
  br label %12

12:                                               ; preds = %222, %2
  %13 = call noundef i32 @_ZNK7glslang15HlslTokenStream4peekEv(ptr noundef nonnull align 8 dereferenceable(324) %11)
  switch i32 %13, label %220 [
    i32 1, label %14
    i32 5, label %20
    i32 9, label %21
    i32 10, label %22
    i32 6, label %28
    i32 2, label %34
    i32 7, label %40
    i32 11, label %46
    i32 12, label %52
    i32 13, label %58
    i32 14, label %64
    i32 15, label %70
    i32 16, label %76
    i32 17, label %82
    i32 8, label %88
    i32 19, label %94
    i32 20, label %117
    i32 21, label %132
    i32 22, label %138
    i32 23, label %143
    i32 24, label %149
    i32 25, label %150
    i32 26, label %164
    i32 27, label %178
    i32 28, label %192
    i32 29, label %206
  ]

14:                                               ; preds = %12
  %15 = load ptr, ptr %5, align 8
  %16 = getelementptr inbounds %"class.glslang::TQualifier", ptr %15, i32 0, i32 1
  %17 = load i64, ptr %16, align 8
  %18 = and i64 %17, -128
  %19 = or i64 %18, 1
  store i64 %19, ptr %16, align 8
  br label %221

20:                                               ; preds = %12
  br label %221

21:                                               ; preds = %12
  br label %221

22:                                               ; preds = %12
  %23 = load ptr, ptr %5, align 8
  %24 = getelementptr inbounds %"class.glslang::TQualifier", ptr %23, i32 0, i32 1
  %25 = load i64, ptr %24, align 8
  %26 = and i64 %25, -128
  %27 = or i64 %26, 7
  store i64 %27, ptr %24, align 8
  br label %221

28:                                               ; preds = %12
  %29 = load ptr, ptr %5, align 8
  %30 = getelementptr inbounds %"class.glslang::TQualifier", ptr %29, i32 0, i32 1
  %31 = load i64, ptr %30, align 8
  %32 = and i64 %31, -128
  %33 = or i64 %32, 5
  store i64 %33, ptr %30, align 8
  br label %221

34:                                               ; preds = %12
  %35 = load ptr, ptr %5, align 8
  %36 = getelementptr inbounds %"class.glslang::TQualifier", ptr %35, i32 0, i32 1
  %37 = load i64, ptr %36, align 8
  %38 = and i64 %37, -128
  %39 = or i64 %38, 2
  store i64 %39, ptr %36, align 8
  br label %221

40:                                               ; preds = %12
  %41 = load ptr, ptr %5, align 8
  %42 = getelementptr inbounds %"class.glslang::TQualifier", ptr %41, i32 0, i32 1
  %43 = load i64, ptr %42, align 8
  %44 = and i64 %43, -1125899906842625
  %45 = or i64 %44, 1125899906842624
  store i64 %45, ptr %42, align 8
  br label %221

46:                                               ; preds = %12
  %47 = load ptr, ptr %5, align 8
  %48 = getelementptr inbounds %"class.glslang::TQualifier", ptr %47, i32 0, i32 1
  %49 = load i64, ptr %48, align 8
  %50 = and i64 %49, -1073741825
  %51 = or i64 %50, 1073741824
  store i64 %51, ptr %48, align 8
  br label %221

52:                                               ; preds = %12
  %53 = load ptr, ptr %5, align 8
  %54 = getelementptr inbounds %"class.glslang::TQualifier", ptr %53, i32 0, i32 1
  %55 = load i64, ptr %54, align 8
  %56 = and i64 %55, -536870913
  %57 = or i64 %56, 536870912
  store i64 %57, ptr %54, align 8
  br label %221

58:                                               ; preds = %12
  %59 = load ptr, ptr %5, align 8
  %60 = getelementptr inbounds %"class.glslang::TQualifier", ptr %59, i32 0, i32 1
  %61 = load i64, ptr %60, align 8
  %62 = and i64 %61, -2147483649
  %63 = or i64 %62, 2147483648
  store i64 %63, ptr %60, align 8
  br label %221

64:                                               ; preds = %12
  %65 = load ptr, ptr %5, align 8
  %66 = getelementptr inbounds %"class.glslang::TQualifier", ptr %65, i32 0, i32 1
  %67 = load i64, ptr %66, align 8
  %68 = and i64 %67, -137438953473
  %69 = or i64 %68, 137438953472
  store i64 %69, ptr %66, align 8
  br label %221

70:                                               ; preds = %12
  %71 = load ptr, ptr %5, align 8
  %72 = getelementptr inbounds %"class.glslang::TQualifier", ptr %71, i32 0, i32 1
  %73 = load i64, ptr %72, align 8
  %74 = and i64 %73, -35184372088833
  %75 = or i64 %74, 35184372088832
  store i64 %75, ptr %72, align 8
  br label %221

76:                                               ; preds = %12
  %77 = load ptr, ptr %5, align 8
  %78 = getelementptr inbounds %"class.glslang::TQualifier", ptr %77, i32 0, i32 1
  %79 = load i64, ptr %78, align 8
  %80 = and i64 %79, -8070450532247928833
  %81 = or i64 %80, 2305843009213693952
  store i64 %81, ptr %78, align 8
  br label %221

82:                                               ; preds = %12
  %83 = load ptr, ptr %5, align 8
  %84 = getelementptr inbounds %"class.glslang::TQualifier", ptr %83, i32 0, i32 1
  %85 = load i64, ptr %84, align 8
  %86 = and i64 %85, -8070450532247928833
  %87 = or i64 %86, 1152921504606846976
  store i64 %87, ptr %84, align 8
  br label %221

88:                                               ; preds = %12
  %89 = load ptr, ptr %5, align 8
  %90 = getelementptr inbounds %"class.glslang::TQualifier", ptr %89, i32 0, i32 1
  %91 = load i64, ptr %90, align 8
  %92 = and i64 %91, -68719476737
  %93 = or i64 %92, 68719476736
  store i64 %93, ptr %90, align 8
  br label %221

94:                                               ; preds = %12
  %95 = load ptr, ptr %5, align 8
  %96 = getelementptr inbounds %"class.glslang::TQualifier", ptr %95, i32 0, i32 1
  %97 = load i64, ptr %96, align 8
  %98 = and i64 %97, 127
  %99 = trunc i64 %98 to i32
  %100 = icmp ne i32 %99, 5
  br i1 %100, label %101, label %116

101:                                              ; preds = %94
  %102 = load ptr, ptr %5, align 8
  %103 = getelementptr inbounds %"class.glslang::TQualifier", ptr %102, i32 0, i32 1
  %104 = load i64, ptr %103, align 8
  %105 = and i64 %104, 127
  %106 = trunc i64 %105 to i32
  %107 = icmp eq i32 %106, 17
  %108 = select i1 %107, i32 18, i32 16
  %109 = load ptr, ptr %5, align 8
  %110 = getelementptr inbounds %"class.glslang::TQualifier", ptr %109, i32 0, i32 1
  %111 = zext i32 %108 to i64
  %112 = load i64, ptr %110, align 8
  %113 = and i64 %111, 127
  %114 = and i64 %112, -128
  %115 = or i64 %114, %113
  store i64 %115, ptr %110, align 8
  br label %116

116:                                              ; preds = %101, %94
  br label %221

117:                                              ; preds = %12
  %118 = load ptr, ptr %5, align 8
  %119 = getelementptr inbounds %"class.glslang::TQualifier", ptr %118, i32 0, i32 1
  %120 = load i64, ptr %119, align 8
  %121 = and i64 %120, 127
  %122 = trunc i64 %121 to i32
  %123 = icmp eq i32 %122, 16
  %124 = select i1 %123, i32 18, i32 17
  %125 = load ptr, ptr %5, align 8
  %126 = getelementptr inbounds %"class.glslang::TQualifier", ptr %125, i32 0, i32 1
  %127 = zext i32 %124 to i64
  %128 = load i64, ptr %126, align 8
  %129 = and i64 %127, 127
  %130 = and i64 %128, -128
  %131 = or i64 %130, %129
  store i64 %131, ptr %126, align 8
  br label %221

132:                                              ; preds = %12
  %133 = load ptr, ptr %5, align 8
  %134 = getelementptr inbounds %"class.glslang::TQualifier", ptr %133, i32 0, i32 1
  %135 = load i64, ptr %134, align 8
  %136 = and i64 %135, -128
  %137 = or i64 %136, 18
  store i64 %137, ptr %134, align 8
  br label %221

138:                                              ; preds = %12
  %139 = load ptr, ptr %5, align 8
  %140 = call noundef zeroext i1 @_ZN7glslang11HlslGrammar25acceptLayoutQualifierListERNS_10TQualifierE(ptr noundef nonnull align 8 dereferenceable(360) %11, ptr noundef nonnull align 8 dereferenceable(80) %139)
  br i1 %140, label %142, label %141

141:                                              ; preds = %138
  store i1 false, ptr %3, align 1
  br label %224

142:                                              ; preds = %138
  br label %222

143:                                              ; preds = %12
  %144 = load ptr, ptr %5, align 8
  %145 = getelementptr inbounds %"class.glslang::TQualifier", ptr %144, i32 0, i32 1
  %146 = load i64, ptr %145, align 8
  %147 = and i64 %146, -562949953421313
  %148 = or i64 %147, 562949953421312
  store i64 %148, ptr %145, align 8
  br label %221

149:                                              ; preds = %12
  br label %221

150:                                              ; preds = %12
  %151 = load ptr, ptr %5, align 8
  %152 = getelementptr inbounds %"class.glslang::TQualifier", ptr %151, i32 0, i32 1
  %153 = load i64, ptr %152, align 8
  %154 = and i64 %153, -128
  %155 = or i64 %154, 16
  store i64 %155, ptr %152, align 8
  %156 = getelementptr inbounds %"class.glslang::HlslGrammar", ptr %11, i32 0, i32 1
  %157 = load ptr, ptr %156, align 8
  %158 = getelementptr inbounds %"class.glslang::HlslTokenStream", ptr %11, i32 0, i32 1
  %159 = getelementptr inbounds %"struct.glslang::HlslToken", ptr %158, i32 0, i32 0
  store i32 1, ptr %6, align 4
  %160 = call noundef zeroext i1 @_ZN7glslang16HlslParseContext19handleInputGeometryERKNS_10TSourceLocERKNS_15TLayoutGeometryE(ptr noundef nonnull align 8 dereferenceable(2489) %157, ptr noundef nonnull align 8 dereferenceable(24) %159, ptr noundef nonnull align 4 dereferenceable(4) %6)
  %161 = xor i1 %160, true
  br i1 %161, label %162, label %163

162:                                              ; preds = %150
  store i1 false, ptr %3, align 1
  br label %224

163:                                              ; preds = %150
  br label %221

164:                                              ; preds = %12
  %165 = load ptr, ptr %5, align 8
  %166 = getelementptr inbounds %"class.glslang::TQualifier", ptr %165, i32 0, i32 1
  %167 = load i64, ptr %166, align 8
  %168 = and i64 %167, -128
  %169 = or i64 %168, 16
  store i64 %169, ptr %166, align 8
  %170 = getelementptr inbounds %"class.glslang::HlslGrammar", ptr %11, i32 0, i32 1
  %171 = load ptr, ptr %170, align 8
  %172 = getelementptr inbounds %"class.glslang::HlslTokenStream", ptr %11, i32 0, i32 1
  %173 = getelementptr inbounds %"struct.glslang::HlslToken", ptr %172, i32 0, i32 0
  store i32 2, ptr %7, align 4
  %174 = call noundef zeroext i1 @_ZN7glslang16HlslParseContext19handleInputGeometryERKNS_10TSourceLocERKNS_15TLayoutGeometryE(ptr noundef nonnull align 8 dereferenceable(2489) %171, ptr noundef nonnull align 8 dereferenceable(24) %173, ptr noundef nonnull align 4 dereferenceable(4) %7)
  %175 = xor i1 %174, true
  br i1 %175, label %176, label %177

176:                                              ; preds = %164
  store i1 false, ptr %3, align 1
  br label %224

177:                                              ; preds = %164
  br label %221

178:                                              ; preds = %12
  %179 = load ptr, ptr %5, align 8
  %180 = getelementptr inbounds %"class.glslang::TQualifier", ptr %179, i32 0, i32 1
  %181 = load i64, ptr %180, align 8
  %182 = and i64 %181, -128
  %183 = or i64 %182, 16
  store i64 %183, ptr %180, align 8
  %184 = getelementptr inbounds %"class.glslang::HlslGrammar", ptr %11, i32 0, i32 1
  %185 = load ptr, ptr %184, align 8
  %186 = getelementptr inbounds %"class.glslang::HlslTokenStream", ptr %11, i32 0, i32 1
  %187 = getelementptr inbounds %"struct.glslang::HlslToken", ptr %186, i32 0, i32 0
  store i32 5, ptr %8, align 4
  %188 = call noundef zeroext i1 @_ZN7glslang16HlslParseContext19handleInputGeometryERKNS_10TSourceLocERKNS_15TLayoutGeometryE(ptr noundef nonnull align 8 dereferenceable(2489) %185, ptr noundef nonnull align 8 dereferenceable(24) %187, ptr noundef nonnull align 4 dereferenceable(4) %8)
  %189 = xor i1 %188, true
  br i1 %189, label %190, label %191

190:                                              ; preds = %178
  store i1 false, ptr %3, align 1
  br label %224

191:                                              ; preds = %178
  br label %221

192:                                              ; preds = %12
  %193 = load ptr, ptr %5, align 8
  %194 = getelementptr inbounds %"class.glslang::TQualifier", ptr %193, i32 0, i32 1
  %195 = load i64, ptr %194, align 8
  %196 = and i64 %195, -128
  %197 = or i64 %196, 16
  store i64 %197, ptr %194, align 8
  %198 = getelementptr inbounds %"class.glslang::HlslGrammar", ptr %11, i32 0, i32 1
  %199 = load ptr, ptr %198, align 8
  %200 = getelementptr inbounds %"class.glslang::HlslTokenStream", ptr %11, i32 0, i32 1
  %201 = getelementptr inbounds %"struct.glslang::HlslToken", ptr %200, i32 0, i32 0
  store i32 3, ptr %9, align 4
  %202 = call noundef zeroext i1 @_ZN7glslang16HlslParseContext19handleInputGeometryERKNS_10TSourceLocERKNS_15TLayoutGeometryE(ptr noundef nonnull align 8 dereferenceable(2489) %199, ptr noundef nonnull align 8 dereferenceable(24) %201, ptr noundef nonnull align 4 dereferenceable(4) %9)
  %203 = xor i1 %202, true
  br i1 %203, label %204, label %205

204:                                              ; preds = %192
  store i1 false, ptr %3, align 1
  br label %224

205:                                              ; preds = %192
  br label %221

206:                                              ; preds = %12
  %207 = load ptr, ptr %5, align 8
  %208 = getelementptr inbounds %"class.glslang::TQualifier", ptr %207, i32 0, i32 1
  %209 = load i64, ptr %208, align 8
  %210 = and i64 %209, -128
  %211 = or i64 %210, 16
  store i64 %211, ptr %208, align 8
  %212 = getelementptr inbounds %"class.glslang::HlslGrammar", ptr %11, i32 0, i32 1
  %213 = load ptr, ptr %212, align 8
  %214 = getelementptr inbounds %"class.glslang::HlslTokenStream", ptr %11, i32 0, i32 1
  %215 = getelementptr inbounds %"struct.glslang::HlslToken", ptr %214, i32 0, i32 0
  store i32 6, ptr %10, align 4
  %216 = call noundef zeroext i1 @_ZN7glslang16HlslParseContext19handleInputGeometryERKNS_10TSourceLocERKNS_15TLayoutGeometryE(ptr noundef nonnull align 8 dereferenceable(2489) %213, ptr noundef nonnull align 8 dereferenceable(24) %215, ptr noundef nonnull align 4 dereferenceable(4) %10)
  %217 = xor i1 %216, true
  br i1 %217, label %218, label %219

218:                                              ; preds = %206
  store i1 false, ptr %3, align 1
  br label %224

219:                                              ; preds = %206
  br label %221

220:                                              ; preds = %12
  store i1 true, ptr %3, align 1
  br label %224

221:                                              ; preds = %219, %205, %191, %177, %163, %149, %143, %132, %117, %116, %88, %82, %76, %70, %64, %58, %52, %46, %40, %34, %28, %22, %21, %20, %14
  call void @_ZN7glslang15HlslTokenStream12advanceTokenEv(ptr noundef nonnull align 8 dereferenceable(324) %11)
  br label %222

222:                                              ; preds = %221, %142
  br i1 true, label %12, label %223, !llvm.loop !16

223:                                              ; preds = %222
  call void @llvm.trap()
  unreachable

224:                                              ; preds = %220, %218, %204, %190, %176, %162, %141
  %225 = load i1, ptr %3, align 1
  ret i1 %225
}