; Function Attrs: mustprogress nounwind uwtable
define noundef zeroext i1 @_ZN7glslang11HlslGrammar18acceptPreQualifierERNS_10TQualifierE(ptr noundef nonnull align 8 dereferenceable(360) %0, ptr noundef nonnull align 8 dereferenceable(80) %1) local_unnamed_addr #0 align 2 {
  %3 = alloca i32, align 4
  %4 = alloca i32, align 4
  %5 = alloca i32, align 4
  %6 = alloca i32, align 4
  %7 = alloca i32, align 4
  %8 = getelementptr inbounds i8, ptr %1, i64 8
  %9 = getelementptr inbounds i8, ptr %0, i64 328
  %10 = getelementptr inbounds i8, ptr %0, i64 8
  br label %11

11:                                               ; preds = %.backedge, %2
  %12 = call noundef i32 @_ZNK7glslang15HlslTokenStream4peekEv(ptr noundef nonnull align 8 dereferenceable(324) %0) #16
  switch i32 %12, label %114 [
    i32 1, label %13
    i32 5, label %113
    i32 9, label %113
    i32 10, label %17
    i32 6, label %21
    i32 2, label %25
    i32 7, label %29
    i32 11, label %32
    i32 12, label %35
    i32 13, label %38
    i32 14, label %41
    i32 15, label %44
    i32 16, label %47
    i32 17, label %51
    i32 8, label %55
    i32 19, label %58
    i32 20, label %67
    i32 21, label %74
    i32 22, label %78
    i32 23, label %80
    i32 24, label %113
    i32 25, label %83
    i32 26, label %89
    i32 27, label %95
    i32 28, label %101
    i32 29, label %107
  ]

13:                                               ; preds = %11
  %14 = load i64, ptr %8, align 8
  %15 = and i64 %14, -128
  %16 = or disjoint i64 %15, 1
  br label %.sink.split

17:                                               ; preds = %11
  %18 = load i64, ptr %8, align 8
  %19 = and i64 %18, -128
  %20 = or disjoint i64 %19, 7
  br label %.sink.split

21:                                               ; preds = %11
  %22 = load i64, ptr %8, align 8
  %23 = and i64 %22, -128
  %24 = or disjoint i64 %23, 5
  br label %.sink.split

25:                                               ; preds = %11
  %26 = load i64, ptr %8, align 8
  %27 = and i64 %26, -128
  %28 = or disjoint i64 %27, 2
  br label %.sink.split

29:                                               ; preds = %11
  %30 = load i64, ptr %8, align 8
  %31 = or i64 %30, 1125899906842624
  br label %.sink.split

32:                                               ; preds = %11
  %33 = load i64, ptr %8, align 8
  %34 = or i64 %33, 1073741824
  br label %.sink.split

35:                                               ; preds = %11
  %36 = load i64, ptr %8, align 8
  %37 = or i64 %36, 536870912
  br label %.sink.split

38:                                               ; preds = %11
  %39 = load i64, ptr %8, align 8
  %40 = or i64 %39, 2147483648
  br label %.sink.split

41:                                               ; preds = %11
  %42 = load i64, ptr %8, align 8
  %43 = or i64 %42, 137438953472
  br label %.sink.split

44:                                               ; preds = %11
  %45 = load i64, ptr %8, align 8
  %46 = or i64 %45, 35184372088832
  br label %.sink.split

47:                                               ; preds = %11
  %48 = load i64, ptr %8, align 8
  %49 = and i64 %48, -8070450532247928833
  %50 = or disjoint i64 %49, 2305843009213693952
  br label %.sink.split

51:                                               ; preds = %11
  %52 = load i64, ptr %8, align 8
  %53 = and i64 %52, -8070450532247928833
  %54 = or disjoint i64 %53, 1152921504606846976
  br label %.sink.split

55:                                               ; preds = %11
  %56 = load i64, ptr %8, align 8
  %57 = or i64 %56, 68719476736
  br label %.sink.split

58:                                               ; preds = %11
  %59 = load i64, ptr %8, align 8
  %60 = trunc i64 %59 to i32
  %61 = and i32 %60, 127
  %.not = icmp eq i32 %61, 5
  br i1 %.not, label %113, label %62

62:                                               ; preds = %58
  %63 = icmp eq i32 %61, 17
  %64 = select i1 %63, i64 18, i64 16
  %65 = and i64 %59, -128
  %66 = or disjoint i64 %64, %65
  br label %.sink.split

67:                                               ; preds = %11
  %68 = load i64, ptr %8, align 8
  %69 = and i64 %68, 127
  %70 = icmp eq i64 %69, 16
  %71 = select i1 %70, i64 18, i64 17
  %72 = and i64 %68, -128
  %73 = or disjoint i64 %71, %72
  br label %.sink.split

74:                                               ; preds = %11
  %75 = load i64, ptr %8, align 8
  %76 = and i64 %75, -128
  %77 = or disjoint i64 %76, 18
  br label %.sink.split

78:                                               ; preds = %11
  %79 = call noundef zeroext i1 @_ZN7glslang11HlslGrammar25acceptLayoutQualifierListERNS_10TQualifierE(ptr noundef nonnull align 8 dereferenceable(360) %0, ptr noundef nonnull align 8 dereferenceable(80) %1)
  br i1 %79, label %.backedge, label %114

.backedge:                                        ; preds = %78, %113
  br label %11, !llvm.loop !46

80:                                               ; preds = %11
  %81 = load i64, ptr %8, align 8
  %82 = or i64 %81, 562949953421312
  br label %.sink.split

83:                                               ; preds = %11
  %84 = load i64, ptr %8, align 8
  %85 = and i64 %84, -128
  %86 = or disjoint i64 %85, 16
  store i64 %86, ptr %8, align 8
  %87 = load ptr, ptr %9, align 8
  store i32 1, ptr %3, align 4
  %88 = call noundef zeroext i1 @_ZN7glslang16HlslParseContext19handleInputGeometryERKNS_10TSourceLocERKNS_15TLayoutGeometryE(ptr noundef nonnull align 8 dereferenceable(2489) %87, ptr noundef nonnull align 8 dereferenceable(24) %10, ptr noundef nonnull align 4 dereferenceable(4) %3) #16
  br i1 %88, label %113, label %114

89:                                               ; preds = %11
  %90 = load i64, ptr %8, align 8
  %91 = and i64 %90, -128
  %92 = or disjoint i64 %91, 16
  store i64 %92, ptr %8, align 8
  %93 = load ptr, ptr %9, align 8
  store i32 2, ptr %4, align 4
  %94 = call noundef zeroext i1 @_ZN7glslang16HlslParseContext19handleInputGeometryERKNS_10TSourceLocERKNS_15TLayoutGeometryE(ptr noundef nonnull align 8 dereferenceable(2489) %93, ptr noundef nonnull align 8 dereferenceable(24) %10, ptr noundef nonnull align 4 dereferenceable(4) %4) #16
  br i1 %94, label %113, label %114

95:                                               ; preds = %11
  %96 = load i64, ptr %8, align 8
  %97 = and i64 %96, -128
  %98 = or disjoint i64 %97, 16
  store i64 %98, ptr %8, align 8
  %99 = load ptr, ptr %9, align 8
  store i32 5, ptr %5, align 4
  %100 = call noundef zeroext i1 @_ZN7glslang16HlslParseContext19handleInputGeometryERKNS_10TSourceLocERKNS_15TLayoutGeometryE(ptr noundef nonnull align 8 dereferenceable(2489) %99, ptr noundef nonnull align 8 dereferenceable(24) %10, ptr noundef nonnull align 4 dereferenceable(4) %5) #16
  br i1 %100, label %113, label %114

101:                                              ; preds = %11
  %102 = load i64, ptr %8, align 8
  %103 = and i64 %102, -128
  %104 = or disjoint i64 %103, 16
  store i64 %104, ptr %8, align 8
  %105 = load ptr, ptr %9, align 8
  store i32 3, ptr %6, align 4
  %106 = call noundef zeroext i1 @_ZN7glslang16HlslParseContext19handleInputGeometryERKNS_10TSourceLocERKNS_15TLayoutGeometryE(ptr noundef nonnull align 8 dereferenceable(2489) %105, ptr noundef nonnull align 8 dereferenceable(24) %10, ptr noundef nonnull align 4 dereferenceable(4) %6) #16
  br i1 %106, label %113, label %114

107:                                              ; preds = %11
  %108 = load i64, ptr %8, align 8
  %109 = and i64 %108, -128
  %110 = or disjoint i64 %109, 16
  store i64 %110, ptr %8, align 8
  %111 = load ptr, ptr %9, align 8
  store i32 6, ptr %7, align 4
  %112 = call noundef zeroext i1 @_ZN7glslang16HlslParseContext19handleInputGeometryERKNS_10TSourceLocERKNS_15TLayoutGeometryE(ptr noundef nonnull align 8 dereferenceable(2489) %111, ptr noundef nonnull align 8 dereferenceable(24) %10, ptr noundef nonnull align 4 dereferenceable(4) %7) #16
  br i1 %112, label %113, label %114

.sink.split:                                      ; preds = %13, %17, %21, %25, %29, %32, %35, %38, %41, %44, %47, %51, %55, %67, %74, %80, %62
  %.sink = phi i64 [ %66, %62 ], [ %82, %80 ], [ %77, %74 ], [ %73, %67 ], [ %57, %55 ], [ %54, %51 ], [ %50, %47 ], [ %46, %44 ], [ %43, %41 ], [ %40, %38 ], [ %37, %35 ], [ %34, %32 ], [ %31, %29 ], [ %28, %25 ], [ %24, %21 ], [ %20, %17 ], [ %16, %13 ]
  store i64 %.sink, ptr %8, align 8
  br label %113

113:                                              ; preds = %.sink.split, %107, %101, %95, %89, %83, %11, %58, %11, %11
  call void @_ZN7glslang15HlslTokenStream12advanceTokenEv(ptr noundef nonnull align 8 dereferenceable(324) %0) #16
  br label %.backedge

114:                                              ; preds = %11, %107, %101, %95, %89, %83, %78
  %.0 = phi i1 [ false, %78 ], [ false, %83 ], [ false, %89 ], [ false, %95 ], [ false, %101 ], [ false, %107 ], [ true, %11 ]
  ret i1 %.0
}